	.file	"check_tag.c"
	.text
.Ltext0:
	.cfi_sections	.debug_frame
	.section	.rodata.str1.1,"aMS",@progbits,1
.LC0:
	.string	"Problem fetching tag %lu.\n"
	.section	.rodata.str1.4,"aMS",@progbits,1
	.align 4
.LC1:
	.string	"Wrong LONG value fetched for tag %lu.\n"
	.text
	.p2align 4,,15
.globl CheckLongField
	.type	CheckLongField, @function
CheckLongField:
.LFB13:
	.file 1 "check_tag.c"
	.loc 1 74 0
	.cfi_startproc
.LVL0:
	pushl	%ebp
	.cfi_def_cfa_offset 8
	.cfi_offset 5, -8
	movl	%esp, %ebp
	.cfi_def_cfa_register 5
	pushl	%ebx
	subl	$36, %esp
	.loc 1 74 0
	movl	12(%ebp), %ebx
	.cfi_offset 3, -12
	.loc 1 77 0
	leal	-12(%ebp), %eax
	movl	%eax, 8(%esp)
	movl	8(%ebp), %eax
	.loc 1 75 0
	movl	$123, -12(%ebp)
.LVL1:
	.loc 1 77 0
	movl	%ebx, 4(%esp)
	movl	%eax, (%esp)
	call	TIFFGetField
	testl	%eax, %eax
	je	.L7
	.loc 1 82 0
	movl	16(%ebp), %edx
	xorl	%eax, %eax
	cmpl	%edx, -12(%ebp)
	jne	.L8
.L3:
	.loc 1 89 0
	addl	$36, %esp
	popl	%ebx
	.cfi_remember_state
	.cfi_restore 3
	popl	%ebp
	.cfi_restore 5
	.cfi_def_cfa 4, 4
	ret
	.p2align 4,,7
	.p2align 3
.L8:
	.cfi_restore_state
	.loc 1 83 0
	movl	stderr, %eax
	movl	%ebx, 8(%esp)
	movl	$.LC1, 4(%esp)
	movl	%eax, (%esp)
	call	fprintf
	movl	$-1, %eax
	.loc 1 85 0
	jmp	.L3
	.p2align 4,,7
	.p2align 3
.L7:
	.loc 1 78 0
	movl	stderr, %eax
	movl	%ebx, 8(%esp)
	movl	$.LC0, 4(%esp)
	movl	%eax, (%esp)
	call	fprintf
	movl	$-1, %eax
	.loc 1 80 0
	jmp	.L3
	.cfi_endproc
.LFE13:
	.size	CheckLongField, .-CheckLongField
	.section	.rodata.str1.4
	.align 4
.LC2:
	.string	"Wrong SHORT PAIR fetched for tag %lu.\n"
	.text
	.p2align 4,,15
.globl CheckShortPairedField
	.type	CheckShortPairedField, @function
CheckShortPairedField:
.LFB12:
	.loc 1 55 0
	.cfi_startproc
.LVL2:
	pushl	%ebp
	.cfi_def_cfa_offset 8
	.cfi_offset 5, -8
	movl	%esp, %ebp
	.cfi_def_cfa_register 5
	pushl	%esi
	pushl	%ebx
	subl	$32, %esp
	.loc 1 55 0
	movl	12(%ebp), %esi
	.cfi_offset 3, -16
	.cfi_offset 6, -12
	.loc 1 58 0
	leal	-12(%ebp), %eax
	.loc 1 55 0
	movl	16(%ebp), %ebx
	.loc 1 58 0
	movl	%eax, 8(%esp)
	movl	8(%ebp), %eax
	leal	-10(%ebp), %edx
	.loc 1 56 0
	movw	$123, -12(%ebp)
	movw	$456, -10(%ebp)
	.loc 1 58 0
	movl	%edx, 12(%esp)
	movl	%esi, 4(%esp)
	movl	%eax, (%esp)
	call	TIFFGetField
	testl	%eax, %eax
	je	.L14
	.loc 1 63 0
	movzwl	-12(%ebp), %eax
	cmpw	(%ebx), %ax
	jne	.L12
	movzwl	-10(%ebp), %edx
	xorl	%eax, %eax
	cmpw	2(%ebx), %dx
	jne	.L12
.L11:
	.loc 1 70 0
	addl	$32, %esp
	popl	%ebx
	.cfi_remember_state
	.cfi_restore 3
	popl	%esi
	.cfi_restore 6
	popl	%ebp
	.cfi_restore 5
	.cfi_def_cfa 4, 4
	ret
	.p2align 4,,7
	.p2align 3
.L12:
	.cfi_restore_state
	.loc 1 64 0
	movl	stderr, %eax
	movl	%esi, 8(%esp)
	movl	$.LC2, 4(%esp)
	movl	%eax, (%esp)
	call	fprintf
	.loc 1 70 0
	addl	$32, %esp
	.loc 1 64 0
	movl	$-1, %eax
	.loc 1 70 0
	popl	%ebx
	.cfi_remember_state
	.cfi_restore 3
	popl	%esi
	.cfi_restore 6
	popl	%ebp
	.cfi_def_cfa 4, 4
	.cfi_restore 5
	ret
	.p2align 4,,7
	.p2align 3
.L14:
	.cfi_restore_state
	.loc 1 59 0
	movl	stderr, %eax
	movl	%esi, 8(%esp)
	movl	$.LC0, 4(%esp)
	movl	%eax, (%esp)
	call	fprintf
	movl	$-1, %eax
	.loc 1 61 0
	jmp	.L11
	.cfi_endproc
.LFE12:
	.size	CheckShortPairedField, .-CheckShortPairedField
	.section	.rodata.str1.4
	.align 4
.LC3:
	.string	"Wrong SHORT value fetched for tag %lu.\n"
	.text
	.p2align 4,,15
.globl CheckShortField
	.type	CheckShortField, @function
CheckShortField:
.LFB11:
	.loc 1 36 0
	.cfi_startproc
.LVL3:
	pushl	%ebp
	.cfi_def_cfa_offset 8
	.cfi_offset 5, -8
	movl	%esp, %ebp
	.cfi_def_cfa_register 5
	subl	$40, %esp
	.loc 1 39 0
	leal	-10(%ebp), %eax
	.loc 1 36 0
	movl	%ebx, -8(%ebp)
	movl	12(%ebp), %ebx
	.cfi_offset 3, -16
	.loc 1 39 0
	movl	%eax, 8(%esp)
	movl	8(%ebp), %eax
	.loc 1 36 0
	movl	%esi, -4(%ebp)
	.loc 1 36 0
	movzwl	16(%ebp), %esi
	.cfi_offset 6, -12
	.loc 1 37 0
	movw	$123, -10(%ebp)
.LVL4:
	.loc 1 39 0
	movl	%ebx, 4(%esp)
	movl	%eax, (%esp)
	call	TIFFGetField
	testl	%eax, %eax
	je	.L20
	.loc 1 44 0
	xorl	%eax, %eax
	cmpw	%si, -10(%ebp)
	jne	.L21
.L17:
	.loc 1 51 0
	movl	-8(%ebp), %ebx
	movl	-4(%ebp), %esi
	movl	%ebp, %esp
	.cfi_remember_state
	.cfi_def_cfa_register 4
	.cfi_restore 6
	.cfi_restore 3
	popl	%ebp
	.cfi_restore 5
	.cfi_def_cfa_offset 4
	ret
	.p2align 4,,7
	.p2align 3
.L21:
	.cfi_restore_state
	.loc 1 45 0
	movl	stderr, %eax
	movl	%ebx, 8(%esp)
	movl	$.LC3, 4(%esp)
	movl	%eax, (%esp)
	call	fprintf
	movl	$-1, %eax
	.loc 1 47 0
	jmp	.L17
	.p2align 4,,7
	.p2align 3
.L20:
	.loc 1 40 0
	movl	stderr, %eax
	movl	%ebx, 8(%esp)
	movl	$.LC0, 4(%esp)
	movl	%eax, (%esp)
	call	fprintf
	movl	$-1, %eax
	.loc 1 42 0
	jmp	.L17
	.cfi_endproc
.LFE11:
	.size	CheckShortField, .-CheckShortField
.Letext0:
	.file 2 "../libtiff/tiff.h"
	.file 3 "../libtiff/tiffio.h"
	.file 4 "/usr/lib/gcc/i686-redhat-linux/4.4.5/include/stddef.h"
	.file 5 "/usr/include/bits/types.h"
	.file 6 "/usr/include/libio.h"
	.file 7 "/usr/include/stdio.h"
	.section	.note.GNU-stack,"",@progbits
