	.file	"rewrite_tag.c"
	.text
.Ltext0:
	.cfi_sections	.debug_frame
	.section	.rodata.str1.1,"aMS",@progbits,1
.LC0:
	.string	"w8"
.LC1:
	.string	"w4"
	.section	.rodata.str1.4,"aMS",@progbits,1
	.align 4
.LC2:
	.string	"Can't create test TIFF file %s.\n"
	.section	.rodata.str1.1
.LC3:
	.string	"Can't set Compression tag.\n"
.LC4:
	.string	"Can't set ImageWidth tag.\n"
.LC5:
	.string	"Can't set ImageLength tag.\n"
.LC6:
	.string	"Can't set BitsPerSample tag.\n"
	.section	.rodata.str1.4
	.align 4
.LC7:
	.string	"Can't set SamplesPerPixel tag.\n"
	.align 4
.LC8:
	.string	"Can't set PlanarConfiguration tag.\n"
	.section	.rodata.str1.1
.LC9:
	.string	"Can't write image data.\n"
.LC10:
	.string	"r+"
	.section	.rodata.str1.4
	.align 4
.LC11:
	.string	"Can't open test TIFF file %s.\n"
	.section	.rodata.str1.1
.LC12:
	.string	"Can't fetch STRIPOFFSETS.\n"
.LC13:
	.string	"Can't fetch STRIPBYTECOUNTS.\n"
.LC14:
	.string	"Can't rewrite STRIPOFFSETS.\n"
	.section	.rodata.str1.4
	.align 4
.LC15:
	.string	"Can't rewrite STRIPBYTECOUNTS.\n"
	.section	.rodata.str1.1
.LC16:
	.string	"r"
	.section	.rodata.str1.4
	.align 4
.LC17:
	.string	"%s:STRIPOFFSETS[%d]: Got %X:%08X instead of %X:%08X.\n"
	.align 4
.LC18:
	.string	"%s:STRIPBYTECOUNTS[%d]: Got %X:%08X instead of %X:%08X.\n"
	.text
	.p2align 4,,15
.globl rewrite_test
	.type	rewrite_test, @function
rewrite_test:
.LFB27:
	.file 1 "rewrite_tag.c"
	.loc 1 144 0
	.cfi_startproc
.LVL0:
	pushl	%ebp
	.cfi_def_cfa_offset 8
	.cfi_offset 5, -8
	movl	%esp, %ebp
	.cfi_def_cfa_register 5
	pushl	%edi
	pushl	%esi
	pushl	%ebx
	subl	$124, %esp
	.loc 1 153 0
	movl	16(%ebp), %ecx
	.loc 1 144 0
	movl	20(%ebp), %eax
	movl	24(%ebp), %edx
	movl	8(%ebp), %esi
	.cfi_offset 3, -20
	.cfi_offset 6, -16
	.cfi_offset 7, -12
	.loc 1 153 0
	testl	%ecx, %ecx
	.loc 1 144 0
	movl	%eax, -64(%ebp)
	movl	%edx, -60(%ebp)
	.loc 1 147 0
	movb	$5, -42(%ebp)
	movb	$6, -41(%ebp)
	movb	$7, -40(%ebp)
	movb	$8, -39(%ebp)
	movb	$9, -38(%ebp)
	movb	$10, -37(%ebp)
	movb	$11, -36(%ebp)
	movb	$12, -35(%ebp)
	movb	$13, -34(%ebp)
	movb	$14, -33(%ebp)
	.loc 1 153 0
	je	.L2
	.loc 1 154 0
	movl	$.LC0, 4(%esp)
	movl	%esi, (%esp)
	call	TIFFOpen
	movl	%eax, %ebx
.LVL1:
	.loc 1 158 0
	testl	%ebx, %ebx
	je	.L52
.L4:
	.loc 1 163 0
	movl	$32773, 8(%esp)
	movl	$259, 4(%esp)
	movl	%ebx, (%esp)
	call	TIFFSetField
.LVL2:
	testl	%eax, %eax
	je	.L53
	.loc 1 167 0
	movl	$10, 8(%esp)
	movl	$256, 4(%esp)
	movl	%ebx, (%esp)
	call	TIFFSetField
	testl	%eax, %eax
	jne	.L8
	.loc 1 168 0
	movl	stderr, %eax
	movl	$26, 8(%esp)
	movl	$1, 4(%esp)
	movl	$.LC4, (%esp)
	movl	%eax, 12(%esp)
	call	fwrite
.LVL3:
.L7:
	.loc 1 312 0
	movl	%ebx, (%esp)
	call	TIFFClose
	movl	$1, %eax
.LVL4:
.L5:
	.loc 1 317 0
	addl	$124, %esp
	popl	%ebx
	.cfi_remember_state
	.cfi_restore 3
	popl	%esi
	.cfi_restore 6
	popl	%edi
	.cfi_restore 7
	popl	%ebp
	.cfi_restore 5
	.cfi_def_cfa 4, 4
	ret
.LVL5:
	.p2align 4,,7
	.p2align 3
.L2:
	.cfi_restore_state
	.loc 1 156 0
	movl	$.LC1, 4(%esp)
	movl	%esi, (%esp)
	call	TIFFOpen
	movl	%eax, %ebx
.LVL6:
	.loc 1 158 0
	testl	%ebx, %ebx
	jne	.L4
.L52:
	.loc 1 159 0
	movl	stderr, %eax
.LVL7:
	movl	%esi, 8(%esp)
	movl	$.LC2, 4(%esp)
	movl	%eax, (%esp)
	call	fprintf
	.loc 1 317 0
	addl	$124, %esp
	.loc 1 159 0
	movl	$1, %eax
	.loc 1 317 0
	popl	%ebx
	.cfi_remember_state
	.cfi_restore 3
.LVL8:
	popl	%esi
	.cfi_restore 6
	popl	%edi
	.cfi_restore 7
	popl	%ebp
	.cfi_def_cfa 4, 4
	.cfi_restore 5
	ret
.LVL9:
	.p2align 4,,7
	.p2align 3
.L53:
	.cfi_restore_state
	.loc 1 164 0
	movl	stderr, %eax
	movl	$27, 8(%esp)
	movl	$1, 4(%esp)
	movl	$.LC3, (%esp)
	movl	%eax, 12(%esp)
	call	fwrite
	.loc 1 165 0
	jmp	.L7
	.p2align 4,,7
	.p2align 3
.L8:
	.loc 1 171 0
	movl	12(%ebp), %edx
	movl	$257, 4(%esp)
	movl	%ebx, (%esp)
	movl	%edx, 8(%esp)
	call	TIFFSetField
	testl	%eax, %eax
	je	.L54
	.loc 1 175 0
	movl	$8, 8(%esp)
	movl	$258, 4(%esp)
	movl	%ebx, (%esp)
	call	TIFFSetField
	testl	%eax, %eax
	jne	.L10
	.loc 1 176 0
	movl	stderr, %eax
	movl	$29, 8(%esp)
	movl	$1, 4(%esp)
	movl	$.LC6, (%esp)
	movl	%eax, 12(%esp)
	call	fwrite
	.loc 1 177 0
	jmp	.L7
	.p2align 4,,7
	.p2align 3
.L54:
	.loc 1 172 0
	movl	stderr, %eax
	movl	$27, 8(%esp)
	movl	$1, 4(%esp)
	movl	$.LC5, (%esp)
	movl	%eax, 12(%esp)
	call	fwrite
	.loc 1 173 0
	jmp	.L7
	.p2align 4,,7
	.p2align 3
.L10:
	.loc 1 179 0
	movl	$1, 8(%esp)
	movl	$277, 4(%esp)
	movl	%ebx, (%esp)
	call	TIFFSetField
	testl	%eax, %eax
	je	.L49
	.loc 1 183 0
	movl	$1, 8(%esp)
	movl	$278, 4(%esp)
	movl	%ebx, (%esp)
	call	TIFFSetField
	testl	%eax, %eax
	je	.L49
	.loc 1 187 0
	movl	$1, 8(%esp)
	movl	$284, 4(%esp)
	movl	%ebx, (%esp)
	call	TIFFSetField
	testl	%eax, %eax
	je	.L13
.LVL10:
	.loc 1 192 0
	movl	12(%ebp), %edx
	.loc 1 189 0
	xorl	%edi, %edi
	.loc 1 192 0
	testl	%edx, %edx
	jle	.L15
	movl	%esi, -68(%ebp)
	movl	12(%ebp), %esi
	jmp	.L43
.LVL11:
	.p2align 4,,7
	.p2align 3
.L16:
	addl	$1, %edi
.LVL12:
	cmpl	%edi, %esi
	jle	.L55
.LVL13:
.L43:
	.loc 1 194 0
	leal	-42(%ebp), %ecx
	movl	$0, 12(%esp)
	movl	%edi, 8(%esp)
	movl	%ecx, 4(%esp)
	movl	%ebx, (%esp)
	call	TIFFWriteScanline
	testl	%eax, %eax
	jne	.L16
	.loc 1 196 0
	movl	stderr, %eax
	movl	$24, 8(%esp)
	movl	$1, 4(%esp)
	movl	$.LC9, (%esp)
	movl	%eax, 12(%esp)
	call	fwrite
	.loc 1 197 0
	jmp	.L7
	.p2align 4,,7
	.p2align 3
.L49:
	.loc 1 184 0
	movl	stderr, %eax
	movl	$31, 8(%esp)
	movl	$1, 4(%esp)
	movl	$.LC7, (%esp)
	movl	%eax, 12(%esp)
	call	fwrite
	.loc 1 185 0
	jmp	.L7
.LVL14:
.L55:
	movl	-68(%ebp), %esi
.LVL15:
.L15:
	.loc 1 201 0
	movl	%ebx, (%esp)
	call	TIFFClose
	.loc 1 204 0
	movl	$.LC10, 4(%esp)
	movl	%esi, (%esp)
	call	TIFFOpen
	.loc 1 205 0
	testl	%eax, %eax
	.loc 1 204 0
	movl	%eax, %ebx
.LVL16:
	.loc 1 205 0
	je	.L50
	.loc 1 210 0
	leal	-28(%ebp), %edi
	movl	%edi, 8(%esp)
	movl	$273, 4(%esp)
	movl	%eax, (%esp)
	call	TIFFGetField
.LVL17:
	testl	%eax, %eax
	je	.L28
	.loc 1 216 0
	leal	-32(%ebp), %eax
	movl	%eax, 8(%esp)
	movl	$279, 4(%esp)
	movl	%ebx, (%esp)
	call	TIFFGetField
	testl	%eax, %eax
	je	.L35
	.loc 1 222 0
	movl	12(%ebp), %edx
	sall	$3, %edx
	movl	%edx, -68(%ebp)
	movl	%edx, (%esp)
	call	_TIFFmalloc
	movl	%eax, %edi
.LVL18:
	.loc 1 223 0
	movl	12(%ebp), %eax
.LVL19:
	testl	%eax, %eax
	jle	.L21
	movl	%ebx, -72(%ebp)
	movl	-64(%ebp), %eax
	xorl	%ecx, %ecx
	movl	-60(%ebp), %edx
	movl	12(%ebp), %ebx
.LVL20:
	.p2align 4,,7
	.p2align 3
.L22:
	.loc 1 224 0
	movl	%eax, (%edi,%ecx,8)
	movl	%edx, 4(%edi,%ecx,8)
	.loc 1 223 0
	addl	$1, %ecx
.LVL21:
	addl	$10, %eax
	adcl	$0, %edx
	cmpl	%ebx, %ecx
	jne	.L22
	movl	-72(%ebp), %ebx
.LVL22:
.L21:
	.loc 1 226 0
	movl	12(%ebp), %ecx
	movl	%edi, 16(%esp)
	movl	$16, 8(%esp)
	movl	$273, 4(%esp)
	movl	%ecx, 12(%esp)
	movl	%ebx, (%esp)
	call	_TIFFRewriteField
	testl	%eax, %eax
	jne	.L23
	.loc 1 229 0
	movl	stderr, %eax
	movl	$28, 8(%esp)
	movl	$1, 4(%esp)
	movl	$.LC14, (%esp)
	movl	%eax, 12(%esp)
	call	fwrite
	.loc 1 230 0
	jmp	.L7
.LVL23:
.L13:
	.loc 1 188 0
	movl	stderr, %eax
	movl	$35, 8(%esp)
	movl	$1, 4(%esp)
	movl	$.LC8, (%esp)
	movl	%eax, 12(%esp)
	call	fwrite
	.loc 1 189 0
	jmp	.L7
.L28:
	.loc 1 260 0
	movl	stderr, %eax
	movl	$26, 8(%esp)
	movl	$1, 4(%esp)
	movl	$.LC12, (%esp)
	movl	%eax, 12(%esp)
	call	fwrite
	.loc 1 261 0
	jmp	.L7
.LVL24:
.L35:
	.loc 1 283 0
	movl	stderr, %eax
	movl	$29, 8(%esp)
	movl	$1, 4(%esp)
	movl	$.LC13, (%esp)
	movl	%eax, 12(%esp)
	call	fwrite
	.loc 1 284 0
	jmp	.L7
.LVL25:
.L23:
	.loc 1 233 0
	movl	%edi, (%esp)
	call	_TIFFfree
	.loc 1 235 0
	movl	-68(%ebp), %edi
.LVL26:
	movl	%edi, (%esp)
	call	_TIFFmalloc
	.loc 1 236 0
	cmpl	$0, 12(%ebp)
	.loc 1 235 0
	movl	%eax, %edi
.LVL27:
	.loc 1 236 0
	jle	.L24
	movl	$100, %eax
.LVL28:
	xorl	%edx, %edx
	xorl	%ecx, %ecx
.LVL29:
.L25:
	.loc 1 237 0
	movl	%eax, (%edi,%ecx,8)
	movl	%edx, 4(%edi,%ecx,8)
	.loc 1 236 0
	addl	$1, %ecx
.LVL30:
	addl	$10, %eax
	adcl	$0, %edx
	cmpl	12(%ebp), %ecx
	jne	.L25
.LVL31:
.L24:
	.loc 1 239 0
	movl	12(%ebp), %eax
	movl	%edi, 16(%esp)
	movl	$16, 8(%esp)
	movl	$279, 4(%esp)
	movl	%eax, 12(%esp)
	movl	%ebx, (%esp)
	call	_TIFFRewriteField
	testl	%eax, %eax
	jne	.L26
	.loc 1 242 0
	movl	stderr, %eax
	movl	$31, 8(%esp)
	movl	$1, 4(%esp)
	movl	$.LC15, (%esp)
	movl	%eax, 12(%esp)
	call	fwrite
	.loc 1 243 0
	jmp	.L7
.LVL32:
.L50:
	.loc 1 254 0
	movl	stderr, %eax
.LVL33:
	movl	%esi, 8(%esp)
	movl	$.LC11, 4(%esp)
	movl	%eax, (%esp)
	call	fprintf
	movl	$1, %eax
	.loc 1 255 0
	jmp	.L5
.LVL34:
.L26:
	.loc 1 246 0
	movl	%edi, (%esp)
	call	_TIFFfree
	.loc 1 248 0
	movl	%ebx, (%esp)
	call	TIFFClose
	.loc 1 252 0
	movl	$.LC16, 4(%esp)
	movl	%esi, (%esp)
	call	TIFFOpen
	.loc 1 253 0
	testl	%eax, %eax
	.loc 1 252 0
	movl	%eax, %ebx
.LVL35:
	.loc 1 253 0
	je	.L50
	.loc 1 258 0
	leal	-28(%ebp), %edx
	movl	%edx, 8(%esp)
	movl	$273, 4(%esp)
	movl	%eax, (%esp)
	call	TIFFGetField
.LVL36:
	testl	%eax, %eax
	je	.L28
.LVL37:
	.loc 1 264 0
	cmpl	$0, 12(%ebp)
	jle	.L29
.LVL38:
.LBB2:
	.loc 1 268 0
	movl	-28(%ebp), %ecx
	movl	4(%ecx), %eax
	movl	(%ecx), %edi
.LVL39:
	cmpl	%eax, -60(%ebp)
	movl	%ecx, -68(%ebp)
	movl	%eax, -76(%ebp)
	movl	%edi, -72(%ebp)
	je	.L56
.L41:
	movl	-64(%ebp), %eax
	xorl	%edi, %edi
	movl	-60(%ebp), %edx
.LVL40:
.L32:
	.loc 1 270 0
	movl	%eax, 28(%esp)
	movl	-72(%ebp), %eax
	movl	%edx, 24(%esp)
	movl	-76(%ebp), %edx
	movl	%edi, 12(%esp)
	movl	%esi, 8(%esp)
	movl	%eax, 20(%esp)
	movl	stderr, %eax
	movl	%edx, 16(%esp)
	movl	$.LC17, 4(%esp)
	movl	%eax, (%esp)
	call	fprintf
	.loc 1 277 0
	jmp	.L7
.LVL41:
.L56:
	.loc 1 268 0
	cmpl	%edi, -64(%ebp)
	jne	.L41
	.loc 1 277 0
	movl	-64(%ebp), %eax
	movl	-60(%ebp), %edx
	movl	%ebx, -96(%ebp)
	addl	$10, %eax
	adcl	$0, %edx
	xorl	%edi, %edi
	jmp	.L33
.LVL42:
.L34:
	.loc 1 268 0
	movl	-68(%ebp), %ecx
	movl	-68(%ebp), %ebx
	movl	(%ecx,%edi,8), %ecx
	movl	4(%ebx,%edi,8), %ebx
	movl	%ecx, -72(%ebp)
	movl	%eax, %ecx
	addl	$10, %ecx
	movl	%ebx, -76(%ebp)
	movl	%edx, %ebx
	adcl	$0, %ebx
	movl	%ecx, -64(%ebp)
	movl	-72(%ebp), %ecx
	movl	%ebx, -60(%ebp)
	movl	-76(%ebp), %ebx
	xorl	%eax, %ecx
	xorl	%edx, %ebx
	orl	%ebx, %ecx
	jne	.L48
	movl	-64(%ebp), %eax
.LVL43:
	movl	-60(%ebp), %edx
.LVL44:
.L33:
.LBE2:
	.loc 1 264 0
	addl	$1, %edi
.LVL45:
	cmpl	%edi, 12(%ebp)
	jg	.L34
	movl	-96(%ebp), %ebx
.LVL46:
.L29:
	.loc 1 281 0
	leal	-32(%ebp), %ecx
	movl	%ecx, 8(%esp)
	movl	$279, 4(%esp)
	movl	%ebx, (%esp)
	call	TIFFGetField
	testl	%eax, %eax
	je	.L35
.LVL47:
.LBB3:
	.loc 1 291 0
	movl	-32(%ebp), %edi
	xorl	%eax, %eax
	movl	%eax, -76(%ebp)
.L36:
.LVL48:
.LBE3:
	.loc 1 287 0
	movl	12(%ebp), %eax
	cmpl	%eax, -76(%ebp)
	jge	.L57
.LBB4:
	.loc 1 289 0
	imull	$10, -76(%ebp), %edx
	.loc 1 291 0
	movl	-76(%ebp), %ecx
	.loc 1 289 0
	addl	$100, %edx
	movl	%edx, %eax
	.loc 1 291 0
	movl	4(%edi,%ecx,8), %ecx
	.loc 1 289 0
	movl	%edx, -64(%ebp)
	sarl	$31, %edx
	movl	%edx, -92(%ebp)
.LVL49:
	.loc 1 291 0
	movl	-76(%ebp), %edx
	.loc 1 289 0
	movl	%eax, -96(%ebp)
	.loc 1 291 0
	movl	-92(%ebp), %eax
	movl	%ecx, -72(%ebp)
	movl	(%edi,%edx,8), %edx
	cmpl	%eax, %ecx
	movl	%edx, -68(%ebp)
	je	.L58
.L42:
	movl	-92(%ebp), %ecx
	movl	-76(%ebp), %eax
	.loc 1 293 0
	movl	-64(%ebp), %edi
	movl	-68(%ebp), %edx
	movl	%ecx, 24(%esp)
	movl	-72(%ebp), %ecx
	movl	%eax, 12(%esp)
	movl	stderr, %eax
	movl	%edi, 28(%esp)
	movl	%edx, 20(%esp)
	movl	%ecx, 16(%esp)
	movl	%esi, 8(%esp)
	movl	$.LC18, 4(%esp)
	movl	%eax, (%esp)
	call	fprintf
	.loc 1 300 0
	jmp	.L7
.L58:
	.loc 1 291 0
	movl	-96(%ebp), %ecx
	cmpl	%ecx, %edx
	jne	.L42
.LBE4:
	.loc 1 287 0
	addl	$1, -76(%ebp)
	.p2align 4,,2
	jmp	.L36
.LVL50:
.L48:
	movl	-96(%ebp), %ebx
	jmp	.L32
.LVL51:
.L57:
	.loc 1 304 0
	movl	%ebx, (%esp)
	call	TIFFClose
	.loc 1 307 0
	movl	%esi, (%esp)
	call	unlink
	xorl	%eax, %eax
	.loc 1 308 0
	jmp	.L5
	.cfi_endproc
.LFE27:
	.size	rewrite_test, .-rewrite_test
	.section	.rodata.str1.1
.LC19:
	.string	"w"
.LC20:
	.string	"test_packbits.tif"
	.text
	.p2align 4,,15
.globl test_packbits
	.type	test_packbits, @function
test_packbits:
.LFB26:
	.loc 1 49 0
	.cfi_startproc
	pushl	%ebp
	.cfi_def_cfa_offset 8
	.cfi_offset 5, -8
	movl	%esp, %ebp
	.cfi_def_cfa_register 5
	subl	$56, %esp
	.loc 1 58 0
	movl	$.LC19, 4(%esp)
	.loc 1 49 0
	movl	%ebx, -12(%ebp)
	movl	%esi, -8(%ebp)
	movl	%edi, -4(%ebp)
	.loc 1 52 0
	movl	$0, -34(%ebp)
	movl	$0, -30(%ebp)
	movw	$0, -26(%ebp)
.LVL52:
	.loc 1 58 0
	movl	$.LC20, (%esp)
	.cfi_offset 7, -12
	.cfi_offset 6, -16
	.cfi_offset 3, -20
	call	TIFFOpen
	.loc 1 60 0
	testl	%eax, %eax
	.loc 1 58 0
	movl	%eax, %ebx
.LVL53:
	.loc 1 60 0
	je	.L79
	.loc 1 65 0
	movl	$32773, 8(%esp)
	movl	$259, 4(%esp)
	movl	%eax, (%esp)
	call	TIFFSetField
.LVL54:
	testl	%eax, %eax
	je	.L80
	.loc 1 69 0
	movl	$10, 8(%esp)
	movl	$256, 4(%esp)
	movl	%ebx, (%esp)
	call	TIFFSetField
	testl	%eax, %eax
	jne	.L64
	.loc 1 70 0
	movl	stderr, %eax
	movl	$26, 8(%esp)
	movl	$1, 4(%esp)
	movl	$.LC4, (%esp)
	movl	%eax, 12(%esp)
	call	fwrite
.L63:
	.loc 1 131 0
	movl	%ebx, (%esp)
	call	TIFFClose
	movl	$1, %eax
.L61:
	.loc 1 136 0
	movl	-12(%ebp), %ebx
.LVL55:
	movl	-8(%ebp), %esi
	movl	-4(%ebp), %edi
	movl	%ebp, %esp
	.cfi_remember_state
	.cfi_def_cfa_register 4
	.cfi_restore 7
	.cfi_restore 6
	.cfi_restore 3
	popl	%ebp
	.cfi_restore 5
	.cfi_def_cfa_offset 4
	ret
.LVL56:
	.p2align 4,,7
	.p2align 3
.L80:
	.cfi_restore_state
	.loc 1 66 0
	movl	stderr, %eax
	movl	$27, 8(%esp)
	movl	$1, 4(%esp)
	movl	$.LC3, (%esp)
	movl	%eax, 12(%esp)
	call	fwrite
	.loc 1 67 0
	jmp	.L63
	.p2align 4,,7
	.p2align 3
.L64:
	.loc 1 73 0
	movl	$20, 8(%esp)
	movl	$257, 4(%esp)
	movl	%ebx, (%esp)
	call	TIFFSetField
	testl	%eax, %eax
	je	.L81
	.loc 1 77 0
	movl	$8, 8(%esp)
	movl	$258, 4(%esp)
	movl	%ebx, (%esp)
	call	TIFFSetField
	testl	%eax, %eax
	jne	.L66
	.loc 1 78 0
	movl	stderr, %eax
	movl	$29, 8(%esp)
	movl	$1, 4(%esp)
	movl	$.LC6, (%esp)
	movl	%eax, 12(%esp)
	call	fwrite
	.loc 1 79 0
	jmp	.L63
	.p2align 4,,7
	.p2align 3
.L81:
	.loc 1 74 0
	movl	stderr, %eax
	movl	$27, 8(%esp)
	movl	$1, 4(%esp)
	movl	$.LC5, (%esp)
	movl	%eax, 12(%esp)
	call	fwrite
	.loc 1 75 0
	jmp	.L63
.LVL57:
	.p2align 4,,7
	.p2align 3
.L79:
	.loc 1 110 0
	movl	stderr, %eax
.LVL58:
	movl	$.LC20, 8(%esp)
	movl	$.LC2, 4(%esp)
	movl	%eax, (%esp)
	call	fprintf
	.loc 1 136 0
	movl	-12(%ebp), %ebx
.LVL59:
	.loc 1 110 0
	movl	$1, %eax
	.loc 1 136 0
	movl	-8(%ebp), %esi
	movl	-4(%ebp), %edi
	movl	%ebp, %esp
	.cfi_remember_state
	.cfi_restore 3
	.cfi_restore 6
	.cfi_restore 7
	.cfi_def_cfa_register 4
	popl	%ebp
	.cfi_def_cfa_offset 4
	.cfi_restore 5
	ret
.LVL60:
	.p2align 4,,7
	.p2align 3
.L66:
	.cfi_restore_state
	.loc 1 81 0
	movl	$1, 8(%esp)
	movl	$277, 4(%esp)
	movl	%ebx, (%esp)
	call	TIFFSetField
	testl	%eax, %eax
	je	.L78
	.loc 1 85 0
	movl	$1, 8(%esp)
	movl	$278, 4(%esp)
	movl	%ebx, (%esp)
	call	TIFFSetField
	testl	%eax, %eax
	je	.L78
	.loc 1 89 0
	movl	$1, 8(%esp)
	.loc 1 91 0
	xorl	%esi, %esi
	.loc 1 89 0
	movl	$284, 4(%esp)
	leal	-34(%ebp), %edi
	movl	%ebx, (%esp)
	call	TIFFSetField
	testl	%eax, %eax
	je	.L82
	.p2align 4,,7
	.p2align 3
.L75:
	.loc 1 96 0
	movl	$10, 12(%esp)
	movl	%edi, 8(%esp)
	movl	%esi, 4(%esp)
	movl	%ebx, (%esp)
	call	TIFFWriteEncodedStrip
	testl	%eax, %eax
	je	.L77
	.loc 1 94 0
	addl	$1, %esi
.LVL61:
	cmpl	$20, %esi
	jne	.L75
	.loc 1 103 0
	movl	%ebx, (%esp)
	call	TIFFClose
	.loc 1 107 0
	movl	$.LC10, 4(%esp)
	movl	$.LC20, (%esp)
	call	TIFFOpen
	.loc 1 109 0
	testl	%eax, %eax
	.loc 1 107 0
	movl	%eax, %ebx
.LVL62:
	.loc 1 109 0
	je	.L79
	.loc 1 114 0
	movb	$17, -31(%ebp)
	.loc 1 115 0
	movb	$12, -28(%ebp)
	.loc 1 117 0
	movl	$10, 12(%esp)
	movl	%edi, 8(%esp)
	movl	$6, 4(%esp)
	movl	%eax, (%esp)
	call	TIFFWriteEncodedStrip
.LVL63:
	testl	%eax, %eax
	jne	.L73
.LVL64:
.L77:
	.loc 1 119 0
	movl	stderr, %eax
	movl	$24, 8(%esp)
	movl	$1, 4(%esp)
	movl	$.LC9, (%esp)
	movl	%eax, 12(%esp)
	call	fwrite
	.loc 1 120 0
	jmp	.L63
	.p2align 4,,7
	.p2align 3
.L78:
	.loc 1 86 0
	movl	stderr, %eax
	movl	$31, 8(%esp)
	movl	$1, 4(%esp)
	movl	$.LC7, (%esp)
	movl	%eax, 12(%esp)
	call	fwrite
	.loc 1 87 0
	jmp	.L63
.L82:
	.loc 1 90 0
	movl	stderr, %eax
	movl	$35, 8(%esp)
	movl	$1, 4(%esp)
	movl	$.LC8, (%esp)
	movl	%eax, 12(%esp)
	call	fwrite
	.loc 1 91 0
	jmp	.L63
.LVL65:
.L73:
	.loc 1 123 0
	movl	%ebx, (%esp)
	call	TIFFClose
	xorl	%eax, %eax
	.loc 1 127 0
	.p2align 4,,3
	jmp	.L61
	.cfi_endproc
.LFE26:
	.size	test_packbits, .-test_packbits
	.section	.rodata.str1.1
.LC21:
	.string	"rewrite1.tif"
.LC22:
	.string	"rewrite2.tif"
.LC23:
	.string	"rewrite3.tif"
.LC24:
	.string	"rewrite4.tif"
.LC25:
	.string	"rewrite5.tif"
.LC26:
	.string	"rewrite6.tif"
	.text
	.p2align 4,,15
.globl main
	.type	main, @function
main:
.LFB28:
	.loc 1 324 0
	.cfi_startproc
.LVL66:
	pushl	%ebp
	.cfi_def_cfa_offset 8
	.cfi_offset 5, -8
	movl	%esp, %ebp
	.cfi_def_cfa_register 5
	andl	$-16, %esp
	pushl	%esi
	pushl	%ebx
	subl	$40, %esp
	.loc 1 329 0
	.cfi_escape 0x10,0x3,0x7,0x75,0x0,0x9,0xf0,0x1a,0x38,0x1c
	.cfi_escape 0x10,0x6,0x7,0x75,0x0,0x9,0xf0,0x1a,0x34,0x1c
	call	test_packbits
	.loc 1 332 0
	movl	$100, 12(%esp)
	movl	$0, 16(%esp)
	movl	$0, 8(%esp)
	movl	$10, 4(%esp)
	movl	$.LC21, (%esp)
	.loc 1 329 0
	movl	%eax, %esi
.LVL67:
	.loc 1 332 0
	call	rewrite_test
.LVL68:
	.loc 1 333 0
	movl	$100, 12(%esp)
	movl	$0, 16(%esp)
	movl	$1, 8(%esp)
	movl	$10, 4(%esp)
	movl	$.LC22, (%esp)
	.loc 1 332 0
	movl	%eax, %ebx
	.loc 1 333 0
	call	rewrite_test
	.loc 1 332 0
	orl	%esi, %ebx
.LVL69:
	.loc 1 336 0
	movl	$100, 12(%esp)
	movl	$0, 16(%esp)
	movl	$0, 8(%esp)
	movl	$1, 4(%esp)
	movl	$.LC23, (%esp)
	.loc 1 333 0
	orl	%eax, %ebx
.LVL70:
	.loc 1 336 0
	call	rewrite_test
	.loc 1 337 0
	movl	$100, 12(%esp)
	movl	$0, 16(%esp)
	movl	$1, 8(%esp)
	movl	$1, 4(%esp)
	movl	$.LC24, (%esp)
	.loc 1 336 0
	orl	%eax, %ebx
.LVL71:
	.loc 1 337 0
	call	rewrite_test
	.loc 1 340 0
	movl	$0, 12(%esp)
	movl	$96, 16(%esp)
	movl	$1, 8(%esp)
	movl	$1000, 4(%esp)
	movl	$.LC25, (%esp)
	.loc 1 337 0
	orl	%eax, %ebx
.LVL72:
	.loc 1 340 0
	call	rewrite_test
	.loc 1 341 0
	movl	$0, 12(%esp)
	movl	$96, 16(%esp)
	movl	$1, 8(%esp)
	movl	$1, 4(%esp)
	movl	$.LC26, (%esp)
	.loc 1 340 0
	orl	%eax, %ebx
.LVL73:
	.loc 1 341 0
	call	rewrite_test
.LVL74:
	.loc 1 344 0
	addl	$40, %esp
	.loc 1 341 0
	orl	%ebx, %eax
.LVL75:
	.loc 1 344 0
	popl	%ebx
	.cfi_restore 3
	popl	%esi
	.cfi_restore 6
	movl	%ebp, %esp
	.cfi_def_cfa_register 4
	popl	%ebp
	.cfi_restore 5
	.cfi_def_cfa_offset 4
	ret
	.cfi_endproc
.LFE28:
	.size	main, .-main
.globl width
	.section	.rodata
	.align 4
	.type	width, @object
	.size	width, 4
width:
	.long	10
.globl length
	.align 4
	.type	length, @object
	.size	length, 4
length:
	.long	40
.globl rows_per_strip
	.align 4
	.type	rows_per_strip, @object
	.size	rows_per_strip, 4
rows_per_strip:
	.long	1
	.text
.Letext0:
	.section	.note.GNU-stack,"",@progbits
