	.file	"strip_rw.c"
	.text
.Ltext0:
	.cfi_sections	.debug_frame
	.section	.rodata.str1.1,"aMS",@progbits,1
.LC0:
	.string	"Can't create TIFF file %s.\n"
.LC1:
	.string	"Can't read TIFF file %s.\n"
	.text
	.p2align 4,,15
.globl main
	.type	main, @function
main:
.LFB11:
	.file 1 "strip_rw.c"
	.loc 1 56 0
	.cfi_startproc
.LVL0:
	pushl	%ebp
	.cfi_def_cfa_offset 8
	.cfi_offset 5, -8
	movl	%esp, %ebp
	.cfi_def_cfa_register 5
	andl	$-16, %esp
	pushl	%ebx
	subl	$60, %esp
	.loc 1 75 0
	movl	byte_array1_size, %ebx
	.cfi_escape 0x10,0x3,0x7,0x75,0x0,0x9,0xf0,0x1a,0x34,0x1c
	movl	filename, %eax
	movl	$byte_array1, 40(%esp)
	movl	$1, 36(%esp)
	movl	%ebx, 44(%esp)
	movl	$1, 32(%esp)
	movl	$1, 28(%esp)
	movl	$8, 24(%esp)
	movl	$1, 20(%esp)
	movl	$1, 16(%esp)
	movl	$1, 12(%esp)
	movl	$1, 8(%esp)
	movl	$851, 4(%esp)
	movl	%eax, (%esp)
	call	create_image_striped
	testl	%eax, %eax
	js	.L13
	.loc 1 82 0
	movl	filename, %eax
	movl	%ebx, 44(%esp)
	movl	$byte_array1, 40(%esp)
	movl	$1, 36(%esp)
	movl	$1, 32(%esp)
	movl	$1, 28(%esp)
	movl	$8, 24(%esp)
	movl	$1, 20(%esp)
	movl	$1, 16(%esp)
	movl	$1, 12(%esp)
	movl	$1, 8(%esp)
	movl	$851, 4(%esp)
	movl	%eax, (%esp)
	call	read_image_striped
	testl	%eax, %eax
	js	.L14
	.loc 1 89 0
	movl	filename, %eax
	movl	%eax, (%esp)
	call	unlink
	.loc 1 91 0
	movl	filename, %eax
	movl	%ebx, 44(%esp)
	movl	$byte_array1, 40(%esp)
	movl	$1, 36(%esp)
	movl	$1, 32(%esp)
	movl	$1, 28(%esp)
	movl	$8, 24(%esp)
	movl	$1, 20(%esp)
	movl	$1, 16(%esp)
	movl	$1, 12(%esp)
	movl	$851, 8(%esp)
	movl	$1, 4(%esp)
	movl	%eax, (%esp)
	call	create_image_striped
	testl	%eax, %eax
	js	.L13
	.loc 1 98 0
	movl	filename, %eax
	movl	%ebx, 44(%esp)
	movl	$byte_array1, 40(%esp)
	movl	$1, 36(%esp)
	movl	$1, 32(%esp)
	movl	$1, 28(%esp)
	movl	$8, 24(%esp)
	movl	$1, 20(%esp)
	movl	$1, 16(%esp)
	movl	$1, 12(%esp)
	movl	$851, 8(%esp)
	movl	$1, 4(%esp)
	movl	%eax, (%esp)
	call	read_image_striped
	testl	%eax, %eax
	js	.L14
	.loc 1 105 0
	movl	filename, %eax
	movl	%eax, (%esp)
	call	unlink
	.loc 1 117 0
	movl	filename, %eax
	movl	%ebx, 44(%esp)
	movl	$byte_array1, 40(%esp)
	movl	$1, 36(%esp)
	movl	$1, 32(%esp)
	movl	$1, 28(%esp)
	movl	$8, 24(%esp)
	movl	$1, 20(%esp)
	movl	$1, 16(%esp)
	movl	$1, 12(%esp)
	movl	$23, 8(%esp)
	movl	$37, 4(%esp)
	movl	%eax, (%esp)
	call	create_image_striped
	testl	%eax, %eax
	js	.L13
	.loc 1 124 0
	movl	filename, %eax
	movl	%ebx, 44(%esp)
	movl	$byte_array1, 40(%esp)
	movl	$1, 36(%esp)
	movl	$1, 32(%esp)
	movl	$1, 28(%esp)
	movl	$8, 24(%esp)
	movl	$1, 20(%esp)
	movl	$1, 16(%esp)
	movl	$1, 12(%esp)
	movl	$23, 8(%esp)
	movl	$37, 4(%esp)
	movl	%eax, (%esp)
	call	read_image_striped
	testl	%eax, %eax
	js	.L14
	.loc 1 131 0
	movl	filename, %eax
	movl	%eax, (%esp)
	call	unlink
.LVL1:
	.loc 1 134 0
	movl	filename, %eax
	movl	%ebx, 44(%esp)
	movl	$byte_array1, 40(%esp)
	movl	$1, 36(%esp)
	movl	$1, 32(%esp)
	movl	$1, 28(%esp)
	movl	$8, 24(%esp)
	movl	$1, 20(%esp)
	movl	$1, 16(%esp)
	movl	$23, 12(%esp)
	movl	$23, 8(%esp)
	movl	$37, 4(%esp)
	movl	%eax, (%esp)
	call	create_image_striped
	testl	%eax, %eax
	js	.L13
	.loc 1 141 0
	movl	filename, %eax
	movl	%ebx, 44(%esp)
	movl	$byte_array1, 40(%esp)
	movl	$1, 36(%esp)
	movl	$1, 32(%esp)
	movl	$1, 28(%esp)
	movl	$8, 24(%esp)
	movl	$1, 20(%esp)
	movl	$1, 16(%esp)
	movl	$23, 12(%esp)
	movl	$23, 8(%esp)
	movl	$37, 4(%esp)
	movl	%eax, (%esp)
	call	read_image_striped
	testl	%eax, %eax
	js	.L14
	.loc 1 148 0
	movl	filename, %eax
	movl	%eax, (%esp)
	call	unlink
	xorl	%eax, %eax
	.loc 1 150 0
	jmp	.L11
.LVL2:
	.p2align 4,,7
	.p2align 3
.L13:
	.loc 1 138 0
	movl	filename, %eax
	movl	$.LC0, 4(%esp)
	movl	%eax, 8(%esp)
	movl	stderr, %eax
	movl	%eax, (%esp)
	call	fprintf
.L3:
	.loc 1 153 0
	movl	filename, %eax
	movl	%eax, (%esp)
	call	unlink
	movl	$1, %eax
.L11:
	.loc 1 155 0
	addl	$60, %esp
	popl	%ebx
	.cfi_remember_state
	.cfi_restore 3
	movl	%ebp, %esp
	.cfi_def_cfa_register 4
	popl	%ebp
	.cfi_restore 5
	.cfi_def_cfa_offset 4
	ret
	.p2align 4,,7
	.p2align 3
.L14:
	.cfi_restore_state
	.loc 1 145 0
	movl	filename, %eax
	movl	$.LC1, 4(%esp)
	movl	%eax, 8(%esp)
	movl	stderr, %eax
	movl	%eax, (%esp)
	call	fprintf
	.loc 1 146 0
	jmp	.L3
	.cfi_endproc
.LFE11:
	.size	main, .-main
.globl filename
	.section	.rodata.str1.1
.LC2:
	.string	"strip_test.tiff"
	.data
	.align 4
	.type	filename, @object
	.size	filename, 4
filename:
	.long	.LC2
	.text
.Letext0:
	.section	.note.GNU-stack,"",@progbits
